; Function Attrs: mustprogress nofree norecurse nosync nounwind memory(read, argmem: readwrite, inaccessiblemem: none) uwtable
define dso_local noundef zeroext i1 @_ZN4Json6Reader10readStringEv(ptr nocapture noundef nonnull align 8 dereferenceable(269) %0) local_unnamed_addr #10 align 2 {
  %2 = getelementptr inbounds i8, ptr %0, i64 208
  %3 = getelementptr inbounds i8, ptr %0, i64 200
  %4 = load ptr, ptr %3, align 8
  %.promoted = load ptr, ptr %2, align 8
  %.not6 = icmp eq ptr %.promoted, %4
  br i1 %.not6, label %_ZN4Json6Reader11getNextCharEv.exit._crit_edge, label %_ZN4Json6Reader11getNextCharEv.exit

_ZN4Json6Reader11getNextCharEv.exit:              ; preds = %1, %_ZN4Json6Reader11getNextCharEv.exit5
  %5 = phi ptr [ %12, %_ZN4Json6Reader11getNextCharEv.exit5 ], [ %.promoted, %1 ]
  %6 = getelementptr inbounds i8, ptr %5, i64 1
  store ptr %6, ptr %2, align 8
  %7 = load i8, ptr %5, align 1
  switch i8 %7, label %_ZN4Json6Reader11getNextCharEv.exit5 [
    i8 92, label %8
    i8 34, label %_ZN4Json6Reader11getNextCharEv.exit._crit_edge.loopexit
  ]

8:                                                ; preds = %_ZN4Json6Reader11getNextCharEv.exit
  %9 = icmp eq ptr %6, %4
  br i1 %9, label %_ZN4Json6Reader11getNextCharEv.exit._crit_edge.loopexit, label %10

10:                                               ; preds = %8
  %11 = getelementptr inbounds i8, ptr %5, i64 2
  store ptr %11, ptr %2, align 8
  br label %_ZN4Json6Reader11getNextCharEv.exit5

_ZN4Json6Reader11getNextCharEv.exit5:             ; preds = %10, %_ZN4Json6Reader11getNextCharEv.exit
  %12 = phi ptr [ %11, %10 ], [ %6, %_ZN4Json6Reader11getNextCharEv.exit ]
  %.not = icmp eq ptr %12, %4
  br i1 %.not, label %_ZN4Json6Reader11getNextCharEv.exit._crit_edge.loopexit, label %_ZN4Json6Reader11getNextCharEv.exit, !llvm.loop !111

_ZN4Json6Reader11getNextCharEv.exit._crit_edge.loopexit: ; preds = %8, %_ZN4Json6Reader11getNextCharEv.exit, %_ZN4Json6Reader11getNextCharEv.exit5
  %.1.ph = phi i8 [ %7, %_ZN4Json6Reader11getNextCharEv.exit5 ], [ %7, %_ZN4Json6Reader11getNextCharEv.exit ], [ 92, %8 ]
  %13 = icmp eq i8 %.1.ph, 34
  br label %_ZN4Json6Reader11getNextCharEv.exit._crit_edge

_ZN4Json6Reader11getNextCharEv.exit._crit_edge:   ; preds = %_ZN4Json6Reader11getNextCharEv.exit._crit_edge.loopexit, %1
  %.1 = phi i1 [ false, %1 ], [ %13, %_ZN4Json6Reader11getNextCharEv.exit._crit_edge.loopexit ]
  ret i1 %.1
}